(dp0
I0
I6569615
sI1
I8262
sI2
I37857
sI3
I165294
sI4
I2707675
sI5
I4172930
sI6
I4172504
sI7
I5105460
sI8
I8678344
sI9
I7203841
sI10
I1065358
sI11
I2149
sI12
I77501
sI13
I14735117
sI14
I1262444
sI15
I971681
sI16
I5066697
sI17
I132494
sI18
I3474690
sI19
I742
sI20
I348511
sI21
I1069677
sI22
I321907
sI23
I833396
sI24
I7161395
sI25
I7536239
sI26
I415659
sI27
I150
sI28
I378267
sI29
I1839
sI30
I1112917
sI31
I11568859
sI32
I1127561
sI33
I1778136
sI34
I667136
sI35
I494944
sI36
I11999825
sI37
I165311
sI38
I23586162
sI39
I271
sI40
I1498443
sI41
I401052
sI42
I73329
sI43
I2093147
sI44
I1488109
sI45
I1777738
sI46
I2597247
sI47
I1272709
sI48
I13586019
sI49
I25821
sI50
I150250
sI51
I4258062
sI52
I265008
sI53
I4223095
sI54
I44240
sI55
I498616
sI56
I922069
sI57
I102476
sI58
I410096
sI59
I569163
sI60
I196
sI61
I661
sI62
I8958
sI63
I1322950
sI64
I6614
sI65
I206469
sI66
I843308
sI67
I2441783
sI68
I580390
s.