ccollections
defaultdict
p0
(c__builtin__
dict
p1
tp2
Rp3
I0
(dp4
I0
I820
sI1
I42
sI2
I102
sI3
I5527
sI4
I177796
sI5
I220013
sI6
I271
sI7
I51
sI8
I2566625
sI9
I71
sI10
I671
sI11
I9
sI13
I73
sI14
I33
sI15
I34
sI16
I24
sI17
I40
sI18
I50
sI21
I42
sI22
I17
sI23
I8
sI24
I43
sI25
I47
sI26
I1113
sI28
I2183
sI29
I23
sI30
I8389
sI31
I2625
sI32
I11
sI33
I4
sI34
I567
sI35
I403
sI36
I44097
sI37
I20
sI38
I46789
sI40
I920
sI41
I2886
sI42
I576
sI43
I56367
sI44
I1365
sI45
I44865
sI46
I37562
sI47
I6985
sI48
I49346
sI49
I39
sI50
I10
sI51
I36
sI52
I2
sI53
I1
sI55
I4
sI57
I2
sI58
I6
sI59
I1034
sI62
I1
sI63
I23
sI64
I1
sI66
I8
sI67
I3903
sI68
I767
ssI1
(dp5
I0
I92
sI1
I175
sI2
I41
sI3
I1
sI4
I1221
sI5
I69
sI6
I314
sI7
I72
sI8
I62
sI9
I202
sI10
I427
sI11
I14
sI12
I4
sI13
I594
sI14
I10
sI15
I18
sI16
I202
sI17
I118
sI18
I45
sI21
I50
sI22
I13
sI23
I90
sI24
I96
sI25
I143
sI26
I77
sI28
I3
sI29
I1
sI30
I67
sI31
I405
sI32
I4
sI33
I12
sI34
I82
sI35
I116
sI36
I177
sI37
I2
sI38
I1935
sI40
I47
sI41
I15
sI43
I17
sI44
I84
sI45
I11
sI46
I35
sI47
I12
sI48
I68
sI51
I72
sI55
I141
sI57
I77
sI59
I42
sI61
I28
sI62
I10
sI63
I524
sI64
I2
sI65
I4
sI66
I4
sI67
I99
sI68
I16
ssI2
(dp6
I0
I264
sI1
I106
sI2
I994
sI3
I17
sI4
I2062
sI5
I183
sI6
I9581
sI7
I1895
sI8
I183
sI9
I8292
sI10
I309
sI11
I7
sI12
I7
sI13
I355
sI14
I556
sI15
I189
sI16
I191
sI17
I985
sI18
I520
sI19
I42
sI21
I92
sI22
I36
sI23
I131
sI24
I179
sI25
I1600
sI26
I140
sI27
I4
sI28
I1
sI29
I9
sI30
I499
sI31
I1860
sI32
I33
sI33
I136
sI34
I143
sI35
I351
sI36
I388
sI37
I1
sI38
I3493
sI40
I171
sI41
I100
sI42
I87
sI43
I81
sI44
I269
sI45
I65
sI46
I95
sI47
I72
sI48
I124
sI51
I156
sI54
I3
sI55
I154
sI57
I8
sI58
I5
sI59
I205
sI61
I4
sI62
I33
sI63
I155
sI65
I2
sI66
I2
sI67
I133
sI68
I99
ssI3
(dp7
I0
I1998
sI2
I10
sI3
I18328
sI4
I12842
sI5
I3115
sI6
I38050
sI7
I5263
sI8
I21335
sI9
I2067
sI10
I96
sI11
I2
sI13
I2899
sI14
I134
sI15
I236
sI16
I1443
sI17
I6
sI18
I6
sI21
I273
sI22
I35
sI23
I547
sI24
I2228
sI25
I328
sI26
I48
sI28
I90
sI30
I243
sI31
I178
sI33
I1
sI34
I35
sI35
I17
sI36
I5193
sI37
I119
sI38
I16433
sI40
I33
sI41
I173
sI42
I23
sI43
I378
sI44
I111
sI45
I666
sI46
I659
sI47
I117
sI48
I15041
sI49
I65
sI50
I2
sI51
I10939
sI52
I4
sI53
I17
sI55
I3299
sI58
I1
sI59
I32
sI63
I5
sI64
I4
sI66
I49
sI67
I58
sI68
I20
ssI4
(dp8
I0
I69604
sI1
I92
sI2
I1734
sI3
I10243
sI4
I601323
sI5
I59297
sI6
I33029
sI7
I13386
sI8
I57723
sI9
I1662
sI10
I4757
sI11
I17
sI12
I61
sI13
I29631
sI14
I4189
sI15
I1733
sI16
I11102
sI17
I280
sI18
I70
sI19
I2
sI21
I1064
sI22
I213
sI23
I2850
sI24
I8033
sI25
I2461
sI26
I2216
sI28
I14864
sI29
I44
sI30
I58347
sI31
I22628
sI32
I33
sI33
I365
sI34
I4715
sI35
I3756
sI36
I135437
sI37
I288
sI38
I558042
sI40
I14604
sI41
I21058
sI42
I5525
sI43
I187005
sI44
I30554
sI45
I154996
sI46
I214263
sI47
I45220
sI48
I265219
sI49
I367
sI50
I34
sI51
I4360
sI52
I7
sI53
I27
sI54
I37
sI55
I2425
sI57
I136
sI58
I89
sI59
I5102
sI60
I3
sI61
I14
sI62
I28
sI63
I267
sI64
I12
sI65
I31
sI66
I1333
sI67
I36044
sI68
I3624
ssI5
(dp9
I0
I578
sI1
I653
sI2
I16872
sI3
I36968
sI4
I7294
sI5
I23581
sI6
I975
sI7
I90
sI8
I6742
sI9
I5
sI10
I36612
sI11
I48
sI12
I16
sI13
I1592
sI14
I1565
sI15
I300
sI16
I1336
sI17
I1271
sI18
I423
sI19
I5
sI20
I1
sI21
I288
sI22
I1459
sI23
I470
sI24
I1196
sI25
I6053
sI26
I10524
sI27
I36
sI28
I24920
sI29
I97
sI30
I78095
sI31
I89363
sI32
I315
sI33
I422
sI34
I36368
sI35
I29657
sI36
I270167
sI37
I2031
sI38
I1210887
sI40
I65568
sI41
I135674
sI42
I5301
sI43
I192491
sI44
I46119
sI45
I278625
sI46
I344315
sI47
I142790
sI48
I768528
sI49
I831
sI50
I22
sI51
I3425
sI52
I7
sI53
I210
sI55
I812
sI56
I31
sI57
I184
sI58
I20851
sI59
I56439
sI60
I75
sI61
I78
sI62
I304
sI63
I1131
sI64
I106
sI65
I327
sI66
I2339
sI67
I172598
sI68
I34474
ssI6
(dp10
I0
I560848
sI1
I61
sI2
I599
sI3
I2729
sI4
I136966
sI5
I236319
sI6
I27249
sI7
I148031
sI8
I207742
sI9
I84877
sI10
I3154
sI11
I28
sI13
I614168
sI14
I597607
sI15
I111991
sI16
I169375
sI17
I514
sI18
I683
sI19
I5
sI21
I70067
sI22
I2917
sI23
I20249
sI24
I284696
sI25
I33803
sI26
I1009
sI27
I6
sI28
I4232
sI29
I31
sI30
I19003
sI31
I29298
sI32
I851
sI33
I471
sI34
I1726
sI35
I1547
sI36
I82904
sI37
I1900
sI38
I191087
sI39
I8
sI40
I6747
sI41
I9488
sI42
I2273
sI43
I107562
sI44
I5451
sI45
I32734
sI46
I46674
sI47
I49008
sI48
I150087
sI49
I574
sI50
I618
sI51
I39546
sI52
I1069
sI53
I6371
sI54
I7
sI55
I26409
sI56
I580
sI57
I222
sI58
I3550
sI59
I2077
sI60
I2
sI61
I1
sI62
I306
sI63
I7012
sI64
I272
sI65
I174
sI66
I2538
sI67
I20895
sI68
I1506
ssI7
(dp11
I0
I1712929
sI1
I68
sI2
I3011
sI3
I4697
sI4
I5487
sI5
I317787
sI6
I1695
sI7
I34
sI8
I21599
sI9
I33
sI10
I29945
sI11
I19
sI12
I1
sI13
I926
sI14
I2518
sI15
I647
sI16
I78
sI17
I129
sI18
I28
sI19
I9
sI21
I800
sI22
I290
sI23
I49
sI24
I37
sI25
I4768
sI26
I224688
sI27
I7
sI28
I14871
sI29
I63
sI30
I70953
sI31
I50854
sI32
I4
sI33
I11
sI34
I78572
sI35
I53355
sI36
I280612
sI37
I2349
sI38
I1028341
sI40
I50518
sI41
I18756
sI42
I5036
sI43
I120928
sI44
I12143
sI45
I104595
sI46
I96455
sI47
I87970
sI48
I217229
sI49
I711
sI50
I12
sI51
I503
sI52
I5
sI53
I39
sI54
I15
sI55
I199
sI57
I29
sI58
I837
sI59
I130631
sI60
I40
sI61
I3
sI62
I54
sI63
I226
sI65
I23
sI66
I823
sI67
I206292
sI68
I139124
ssI8
(dp12
I0
I166668
sI1
I23
sI2
I2794
sI3
I20646
sI4
I399642
sI5
I523310
sI6
I946
sI7
I7209
sI8
I4495580
sI9
I55
sI10
I12394
sI11
I7
sI12
I1
sI13
I572
sI14
I3575
sI15
I677
sI16
I135
sI17
I246
sI18
I46
sI19
I5
sI21
I401
sI22
I91
sI23
I140
sI24
I232
sI25
I603
sI26
I95113
sI27
I2
sI28
I18556
sI29
I84
sI30
I67380
sI31
I29293
sI32
I35
sI33
I17
sI34
I26573
sI35
I19221
sI36
I162493
sI37
I1494
sI38
I649736
sI39
I11
sI40
I24878
sI41
I22556
sI42
I11341
sI43
I304693
sI44
I20111
sI45
I252836
sI46
I229557
sI47
I97317
sI48
I795791
sI49
I615
sI50
I7
sI51
I633
sI52
I5
sI53
I485
sI55
I116
sI56
I2
sI57
I96
sI58
I1409
sI59
I40515
sI60
I16
sI61
I5
sI62
I27
sI63
I187
sI64
I6
sI65
I7
sI66
I451
sI67
I114514
sI68
I54162
ssI9
(dp13
I0
I2532
sI1
I91
sI2
I3551
sI3
I9033
sI4
I8904
sI5
I219696
sI6
I68
sI7
I10
sI8
I434
sI9
I42
sI10
I80613
sI11
I28
sI13
I1262
sI14
I41664
sI15
I17005
sI16
I279
sI17
I275
sI18
I57
sI19
I6
sI21
I2492
sI22
I275
sI23
I217
sI24
I892
sI25
I1764
sI26
I45037
sI27
I13
sI28
I40715
sI29
I142
sI30
I165102
sI31
I143756
sI32
I29
sI33
I42
sI34
I163418
sI35
I107607
sI36
I697085
sI37
I5523
sI38
I2557060
sI39
I18
sI40
I170585
sI41
I51116
sI42
I12667
sI43
I434888
sI44
I36039
sI45
I302286
sI46
I438663
sI47
I280892
sI48
I476741
sI49
I2884
sI50
I11
sI51
I714
sI52
I16
sI53
I108
sI55
I250
sI56
I2
sI57
I85
sI58
I1143
sI59
I151961
sI60
I44
sI61
I17
sI62
I54
sI63
I990
sI64
I57
sI65
I48
sI66
I1159
sI67
I366785
sI68
I156899
ssI10
(dp14
I0
I3726
sI1
I133
sI2
I195
sI3
I199
sI4
I3796
sI5
I6880
sI6
I56320
sI7
I92801
sI8
I2127
sI9
I58178
sI10
I6310
sI11
I29
sI12
I1
sI13
I3969
sI14
I26790
sI15
I5745
sI16
I6590
sI17
I7425
sI18
I53656
sI20
I6
sI21
I6558
sI22
I3713
sI23
I835
sI24
I2236
sI25
I87025
sI26
I249
sI28
I591
sI29
I69
sI30
I3527
sI31
I104110
sI32
I1470
sI33
I5892
sI34
I396
sI35
I435
sI36
I84795
sI37
I849
sI38
I223054
sI40
I7539
sI41
I1546
sI42
I216
sI43
I3009
sI44
I1597
sI45
I1881
sI46
I4699
sI47
I4102
sI48
I6519
sI49
I59
sI50
I17
sI51
I2555
sI52
I77
sI53
I68
sI54
I4287
sI55
I147
sI56
I63
sI57
I70200
sI58
I29
sI59
I1266
sI61
I3
sI62
I139
sI63
I62209
sI64
I149
sI65
I4329
sI66
I19333
sI67
I7632
sI68
I1008
ssI11
(dp15
I0
I13
sI1
I2
sI2
I39
sI3
I1
sI4
I13
sI5
I20
sI6
I162
sI7
I57
sI8
I6
sI9
I51
sI10
I21
sI11
I12
sI13
I34
sI14
I43
sI15
I10
sI16
I12
sI17
I37
sI18
I83
sI21
I8
sI22
I4
sI23
I4
sI24
I11
sI25
I63
sI26
I3
sI30
I7
sI31
I273
sI33
I76
sI34
I8
sI36
I106
sI37
I2
sI38
I716
sI40
I19
sI41
I1
sI43
I5
sI44
I7
sI45
I1
sI46
I5
sI47
I7
sI48
I4
sI51
I3
sI57
I72
sI59
I10
sI62
I8
sI63
I86
sI65
I7
sI66
I9
sI67
I1
sI68
I7
ssI12
(dp16
I0
I242
sI1
I2
sI2
I9
sI3
I4
sI4
I386
sI5
I403
sI6
I14716
sI7
I15587
sI8
I145
sI9
I3214
sI10
I180
sI13
I223
sI14
I5062
sI15
I1801
sI16
I68
sI17
I892
sI18
I3406
sI20
I1
sI21
I1006
sI22
I1126
sI23
I40
sI24
I44
sI25
I7037
sI26
I10
sI28
I7
sI29
I1
sI30
I117
sI31
I4935
sI32
I3
sI33
I2
sI34
I23
sI35
I13
sI36
I2225
sI37
I53
sI38
I6862
sI40
I261
sI41
I13
sI42
I2
sI43
I39
sI44
I23
sI45
I15
sI46
I75
sI47
I64
sI48
I111
sI49
I1
sI50
I2
sI51
I17
sI54
I80
sI55
I2
sI57
I586
sI59
I27
sI62
I1
sI63
I4678
sI64
I8
sI65
I769
sI66
I583
sI67
I252
sI68
I47
ssI13
(dp17
I0
I16150
sI1
I445
sI2
I750
sI3
I3051
sI4
I11381
sI5
I198229
sI6
I35294
sI7
I61158
sI8
I6544
sI9
I720160
sI10
I358745
sI11
I27
sI13
I2643
sI14
I7829
sI15
I900
sI16
I802774
sI17
I1678
sI18
I373
sI19
I15
sI21
I9249
sI22
I798
sI23
I144
sI24
I344373
sI25
I6081
sI26
I5256
sI27
I4
sI28
I47526
sI29
I344
sI30
I103490
sI31
I5805961
sI32
I49
sI33
I231
sI34
I154709
sI35
I106824
sI36
I2595056
sI37
I14447
sI38
I1710789
sI39
I9
sI40
I353008
sI41
I15859
sI42
I3653
sI43
I76089
sI44
I7186
sI45
I76163
sI46
I102232
sI47
I88970
sI48
I538800
sI49
I1536
sI50
I5
sI51
I693
sI52
I6
sI53
I111
sI55
I68
sI57
I5
sI58
I1081
sI59
I40213
sI60
I6
sI61
I105
sI62
I21
sI63
I751
sI64
I13
sI65
I19
sI66
I339
sI67
I233824
sI68
I60875
ssI14
(dp18
I0
I151
sI1
I13
sI2
I80
sI3
I10
sI4
I674
sI5
I9175
sI6
I652
sI7
I5118
sI8
I259
sI9
I53304
sI10
I10458
sI11
I1
sI13
I26
sI14
I33
sI15
I10
sI16
I52961
sI17
I630
sI18
I114
sI19
I5
sI20
I1
sI21
I2914
sI22
I2724
sI23
I89
sI24
I75293
sI25
I47
sI26
I80
sI28
I470
sI29
I47
sI30
I4986
sI31
I676725
sI32
I1
sI33
I4
sI34
I6751
sI35
I4340
sI36
I207149
sI37
I494
sI38
I84336
sI40
I17630
sI41
I39
sI42
I511
sI43
I14382
sI44
I1480
sI45
I4757
sI46
I363
sI47
I3864
sI48
I6700
sI49
I94
sI50
I3
sI51
I12
sI53
I3
sI55
I2
sI59
I2754
sI63
I22
sI64
I9
sI66
I128
sI67
I7932
sI68
I1634
ssI15
(dp19
I0
I357
sI1
I87
sI2
I21
sI3
I309
sI4
I1267
sI5
I48830
sI6
I4219
sI7
I1282
sI8
I222
sI9
I156468
sI10
I9425
sI11
I1
sI12
I12
sI13
I190
sI14
I7
sI15
I32
sI16
I81997
sI17
I198
sI18
I98
sI20
I2
sI21
I685
sI22
I439
sI23
I15
sI24
I23406
sI25
I580
sI26
I266
sI28
I2835
sI29
I15
sI30
I10586
sI31
I47277
sI32
I1
sI33
I257
sI34
I6157
sI35
I3309
sI36
I154900
sI37
I2125
sI38
I237605
sI40
I26454
sI41
I2129
sI42
I406
sI43
I9357
sI44
I919
sI45
I10334
sI46
I9421
sI47
I14264
sI48
I18891
sI49
I354
sI51
I80
sI53
I8
sI55
I2
sI58
I1
sI59
I3242
sI61
I3
sI62
I1
sI63
I58966
sI64
I365
sI65
I1780
sI66
I2519
sI67
I12733
sI68
I3970
ssI16
(dp20
I0
I5911
sI1
I319
sI2
I208
sI3
I2933
sI4
I12199
sI5
I303109
sI6
I20426
sI7
I16636
sI8
I1373
sI9
I776176
sI10
I222641
sI11
I15
sI12
I6533
sI13
I4154
sI14
I1459
sI15
I349
sI16
I1072
sI17
I747
sI18
I104
sI19
I6
sI21
I173
sI22
I75
sI23
I820
sI24
I6333
sI25
I89901
sI26
I6992
sI27
I8
sI28
I29411
sI29
I88
sI30
I58105
sI31
I579668
sI32
I23
sI33
I12881
sI34
I121563
sI35
I88262
sI36
I458010
sI37
I9310
sI38
I881992
sI40
I171544
sI41
I10663
sI42
I3083
sI43
I59914
sI44
I6330
sI45
I59347
sI46
I73647
sI47
I60344
sI48
I557892
sI49
I987
sI50
I6
sI51
I654
sI52
I3
sI53
I434
sI55
I82
sI57
I1
sI58
I815
sI59
I58934
sI60
I1
sI61
I9
sI62
I11
sI63
I151
sI64
I8
sI65
I186
sI66
I525
sI67
I224088
sI68
I57053
ssI17
(dp21
I0
I1229
sI1
I321
sI2
I162
sI3
I14
sI4
I8926
sI5
I500
sI6
I46290
sI7
I40828
sI8
I1295
sI9
I10084
sI10
I180
sI11
I44
sI12
I1
sI13
I513
sI14
I4365
sI15
I795
sI16
I148
sI17
I7082
sI18
I190
sI19
I85
sI20
I2
sI21
I113
sI22
I114
sI23
I87
sI24
I426
sI25
I857
sI26
I75
sI28
I8
sI29
I4
sI30
I200
sI31
I1352
sI32
I19
sI33
I199
sI34
I69
sI35
I65
sI36
I517
sI37
I6
sI38
I4015
sI40
I67
sI41
I108
sI42
I10
sI43
I53
sI44
I193
sI45
I37
sI46
I62
sI47
I11
sI48
I87
sI51
I18
sI55
I35
sI57
I2
sI58
I3
sI59
I173
sI61
I1
sI63
I298
sI64
I5
sI65
I40
sI66
I6
sI67
I58
sI68
I47
ssI18
(dp22
I0
I2501
sI1
I390
sI2
I608
sI3
I630
sI4
I12538
sI5
I36065
sI6
I29562
sI7
I15932
sI8
I1920
sI9
I853342
sI10
I23087
sI11
I25
sI12
I38749
sI13
I14905
sI14
I4116
sI15
I596
sI16
I104391
sI17
I7884
sI18
I42
sI20
I324
sI21
I2701
sI22
I1209
sI23
I195
sI24
I10094
sI25
I23265
sI26
I1489
sI27
I10
sI28
I4124
sI29
I55
sI30
I9758
sI31
I133220
sI32
I125
sI33
I1613825
sI34
I16959
sI35
I14630
sI36
I135775
sI37
I2410
sI38
I202276
sI39
I11
sI40
I28111
sI41
I3639
sI42
I524
sI43
I6989
sI44
I841
sI45
I7088
sI46
I10141
sI47
I9250
sI48
I46638
sI49
I173
sI50
I1
sI51
I125
sI52
I11
sI53
I10
sI54
I9
sI55
I42
sI57
I4
sI58
I188
sI59
I8398
sI60
I2
sI61
I291
sI62
I5
sI63
I824
sI64
I96
sI65
I10
sI66
I286
sI67
I26078
sI68
I5178
ssI67
(dp23
I0
I5373
sI1
I45
sI2
I83
sI3
I289
sI4
I7938
sI5
I16399
sI6
I30378
sI7
I14861
sI8
I12781
sI9
I333112
sI10
I8542
sI11
I8
sI13
I414306
sI14
I3790
sI15
I15609
sI16
I165039
sI17
I135
sI18
I80
sI19
I1
sI20
I11
sI21
I38112
sI22
I818
sI23
I6613
sI24
I372656
sI25
I16995
sI26
I1221
sI28
I3612
sI29
I3
sI30
I6086
sI31
I46664
sI32
I2
sI33
I56
sI34
I6077
sI35
I3936
sI36
I157084
sI37
I290
sI38
I97231
sI40
I6979
sI41
I730
sI42
I214
sI43
I1761
sI44
I434
sI45
I3104
sI46
I4844
sI47
I4293
sI48
I349067
sI49
I28
sI50
I322
sI51
I47821
sI52
I7624
sI53
I219
sI54
I23
sI55
I228
sI56
I508
sI57
I32
sI58
I53334
sI59
I2188
sI61
I1
sI63
I207
sI64
I107
sI66
I3208
sI67
I165912
sI68
I2359
ssI20
(dp24
I0
I1157
sI1
I15
sI2
I18
sI3
I92
sI4
I509
sI5
I4712
sI6
I3030
sI7
I91
sI8
I260
sI9
I18299
sI10
I11711
sI12
I1
sI13
I16
sI14
I862
sI15
I11
sI16
I340
sI17
I74
sI18
I5
sI21
I323
sI22
I24
sI23
I19
sI25
I1082
sI26
I81
sI28
I308
sI29
I18
sI30
I2252
sI31
I119532
sI32
I2
sI33
I5
sI34
I1289
sI35
I1657
sI36
I94408
sI37
I237
sI38
I59059
sI40
I9905
sI41
I319
sI42
I92
sI43
I1097
sI44
I193
sI45
I1420
sI46
I1639
sI47
I2086
sI48
I4089
sI49
I42
sI50
I3
sI51
I21
sI52
I4
sI53
I8
sI55
I4
sI58
I19
sI59
I1527
sI63
I45
sI65
I4
sI66
I9
sI67
I2488
sI68
I1998
ssI21
(dp25
I0
I1432
sI1
I26
sI2
I63
sI3
I176
sI4
I2564
sI5
I7697
sI6
I16083
sI7
I29034
sI8
I876
sI9
I66749
sI10
I12688
sI11
I1
sI12
I2
sI13
I284045
sI14
I23990
sI15
I17478
sI16
I39850
sI17
I692
sI18
I304
sI19
I15
sI20
I5
sI21
I4596
sI22
I1426
sI23
I678
sI24
I146498
sI25
I61756
sI26
I139
sI27
I2
sI28
I6849
sI29
I16
sI30
I6447
sI31
I93512
sI32
I1
sI33
I207
sI34
I3237
sI35
I3068
sI36
I53208
sI37
I613
sI38
I94672
sI40
I21020
sI41
I607
sI42
I71
sI43
I1125
sI44
I170
sI45
I2934
sI46
I7604
sI47
I4988
sI48
I33886
sI49
I98
sI51
I32
sI53
I1
sI54
I3
sI55
I4
sI58
I55
sI59
I2183
sI62
I1
sI63
I633
sI64
I13
sI65
I4
sI66
I663
sI67
I10408
sI68
I2479
ssI22
(dp26
I0
I1716
sI1
I277
sI2
I3
sI3
I57
sI4
I9040
sI5
I2091
sI6
I35211
sI7
I81785
sI8
I679
sI9
I41532
sI10
I1727
sI11
I4
sI12
I2
sI13
I28264
sI14
I14857
sI15
I7575
sI16
I9585
sI17
I9316
sI18
I126
sI19
I1
sI21
I2372
sI22
I4
sI23
I190
sI24
I9800
sI25
I2082
sI26
I100
sI28
I19
sI29
I2
sI30
I468
sI31
I12688
sI33
I12
sI34
I637
sI35
I18096
sI36
I11024
sI37
I101
sI38
I11252
sI40
I2957
sI41
I551
sI42
I12
sI43
I351
sI44
I194
sI45
I316
sI46
I349
sI47
I295
sI48
I1724
sI51
I147
sI52
I1
sI55
I42
sI58
I53
sI59
I629
sI61
I1
sI63
I33
sI64
I7
sI65
I8
sI66
I92
sI67
I1161
sI68
I289
ssI23
(dp27
I0
I228
sI1
I581
sI2
I128
sI3
I1126
sI4
I1496
sI5
I10729
sI6
I480
sI7
I1496
sI8
I280
sI9
I86236
sI10
I5027
sI11
I1
sI13
I2659
sI14
I695
sI15
I294
sI16
I851
sI17
I124
sI18
I66
sI21
I94
sI22
I46
sI23
I31
sI24
I675
sI25
I510
sI26
I83
sI28
I1917
sI29
I75
sI30
I15653
sI31
I14684
sI32
I33
sI33
I23
sI34
I318
sI35
I293
sI36
I81868
sI37
I264
sI38
I410857
sI40
I21671
sI41
I5978
sI42
I1355
sI43
I23140
sI44
I3115
sI45
I29289
sI46
I41163
sI47
I30094
sI48
I21184
sI49
I209
sI50
I6
sI51
I110
sI53
I6
sI55
I67
sI58
I83
sI59
I3222
sI61
I3
sI62
I23
sI63
I88
sI64
I9
sI65
I2
sI66
I6
sI67
I11122
sI68
I1530
ssI24
(dp28
I0
I270
sI1
I300
sI2
I125
sI3
I4908
sI4
I1722
sI5
I119763
sI6
I9377
sI7
I261
sI8
I515
sI9
I7239
sI10
I56075
sI11
I1
sI12
I1
sI13
I11
sI15
I25
sI16
I40
sI17
I276
sI18
I55
sI19
I3
sI21
I119
sI22
I4
sI23
I38
sI24
I39
sI25
I1143
sI26
I957
sI27
I4
sI28
I36355
sI29
I135
sI30
I119327
sI31
I40658
sI32
I4
sI33
I3
sI34
I7136
sI35
I5190
sI36
I1617015
sI37
I24398
sI38
I3444381
sI40
I169771
sI41
I33795
sI42
I7844
sI43
I207482
sI44
I19471
sI45
I95968
sI46
I120453
sI47
I76199
sI48
I330588
sI49
I4426
sI50
I21
sI51
I688
sI52
I186
sI53
I50
sI55
I70
sI57
I37
sI58
I3
sI59
I12143
sI62
I27
sI63
I64445
sI64
I9
sI65
I45061
sI66
I318076
sI67
I144470
sI68
I12239
ssI25
(dp29
I0
I11015
sI1
I814
sI2
I774
sI3
I1911
sI4
I34774
sI5
I76142
sI6
I420680
sI7
I2347052
sI8
I6506
sI9
I262003
sI10
I21736
sI11
I39
sI12
I3252
sI13
I37553
sI14
I208665
sI15
I59790
sI16
I85491
sI17
I62490
sI18
I501600
sI19
I295
sI20
I7
sI21
I33179
sI22
I93009
sI23
I3628
sI24
I1528
sI25
I822102
sI26
I943
sI27
I1
sI28
I9334
sI29
I51
sI30
I35008
sI31
I41405
sI32
I1260
sI33
I475
sI34
I3754
sI35
I4180
sI36
I261037
sI37
I11307
sI38
I952727
sI39
I1
sI40
I40756
sI41
I8425
sI42
I4052
sI43
I73661
sI44
I10196
sI45
I46665
sI46
I52646
sI47
I44804
sI48
I62489
sI49
I611
sI50
I8
sI51
I1491
sI52
I29
sI53
I20
sI54
I143
sI55
I121
sI57
I833
sI58
I17
sI59
I9839
sI61
I2
sI62
I5341
sI63
I483788
sI64
I579
sI65
I35790
sI66
I155554
sI67
I72396
sI68
I8465
ssI26
(dp30
I0
I121
sI1
I188
sI2
I75
sI3
I269
sI4
I1085
sI5
I12407
sI6
I768
sI7
I80
sI8
I128
sI9
I233748
sI10
I2661
sI11
I7
sI13
I5464
sI14
I115
sI15
I74
sI16
I100
sI17
I584
sI18
I32
sI21
I28
sI22
I19
sI23
I11
sI24
I408
sI25
I382
sI26
I614
sI27
I4
sI28
I719
sI29
I7
sI30
I3742
sI31
I5729
sI32
I2
sI33
I17
sI34
I3783
sI35
I2650
sI36
I17118
sI37
I255
sI38
I61489
sI39
I3
sI40
I5959
sI41
I766
sI42
I287
sI43
I4373
sI44
I1145
sI45
I3625
sI46
I4471
sI47
I5570
sI48
I9390
sI49
I48
sI50
I4
sI51
I93
sI52
I2632
sI53
I1
sI54
I9
sI55
I20
sI56
I1
sI57
I5
sI58
I57
sI59
I6345
sI60
I1
sI62
I1
sI63
I83
sI64
I10
sI65
I2
sI66
I433
sI67
I10214
sI68
I5228
ssI27
(dp31
I33
I1
sI34
I2
sI36
I1
sI38
I55
sI6
I26
sI40
I6
sI9
I2
sI10
I26
sI13
I1
sI14
I6
sI15
I3
sI16
I2
sI21
I1
sI25
I2
sI24
I1
sI4
I5
sI31
I7
sI63
I3
ssI28
(dp32
I0
I3
sI1
I1
sI2
I1
sI3
I3
sI4
I25
sI5
I39
sI6
I52
sI7
I3
sI8
I134
sI9
I7
sI10
I4
sI13
I3
sI16
I2
sI17
I1
sI22
I3
sI24
I7
sI25
I4
sI28
I4273
sI30
I113
sI31
I67
sI33
I1
sI34
I1
sI35
I5
sI36
I562
sI38
I4506
sI40
I17
sI41
I31
sI42
I14
sI43
I233
sI44
I117
sI45
I71
sI46
I28
sI47
I11
sI48
I366337
sI51
I2
sI55
I1
sI57
I1
sI58
I33
sI59
I4
sI63
I7
sI64
I1
sI66
I2
sI67
I1537
ssI29
(dp33
I0
I8
sI1
I2
sI2
I3
sI4
I60
sI5
I7
sI6
I34
sI7
I2
sI8
I7
sI9
I4
sI10
I15
sI11
I1
sI13
I7
sI15
I1
sI16
I2
sI17
I1
sI21
I1
sI25
I1
sI26
I3
sI28
I2
sI30
I13
sI31
I662
sI32
I2
sI33
I1
sI36
I224
sI37
I1
sI38
I527
sI40
I1
sI42
I2
sI43
I21
sI44
I152
sI46
I3
sI47
I9
sI48
I6
sI55
I8
sI57
I1
sI67
I44
sI68
I1
ssI30
(dp34
I0
I922
sI1
I113
sI2
I560
sI3
I512
sI4
I14590
sI5
I6015
sI6
I5500
sI7
I87
sI8
I7815
sI9
I2822
sI10
I1101
sI11
I8
sI12
I4
sI13
I392
sI14
I18
sI15
I9
sI16
I188
sI17
I64
sI18
I22
sI20
I3
sI21
I31
sI22
I47
sI23
I27
sI24
I166
sI25
I258
sI26
I237
sI28
I1295
sI29
I23
sI30
I15979
sI31
I10831
sI32
I9
sI33
I86
sI34
I54
sI35
I189
sI36
I222859
sI37
I1596
sI38
I644513
sI40
I11145
sI41
I2748
sI42
I430
sI43
I11028
sI44
I7590
sI45
I35186
sI46
I19221
sI47
I23053
sI48
I53838
sI49
I117
sI50
I21
sI51
I1251
sI52
I10
sI53
I79
sI54
I16
sI55
I175
sI57
I105
sI58
I32
sI59
I1438
sI62
I4
sI63
I179
sI64
I9
sI65
I12
sI66
I12
sI67
I6230
sI68
I43
ssI31
(dp35
I0
I26425
sI1
I679
sI2
I694
sI3
I1304
sI4
I21071
sI5
I82037
sI6
I152782
sI7
I673884
sI8
I23547
sI9
I853311
sI10
I11614
sI11
I225
sI12
I27941
sI13
I55331
sI14
I95478
sI15
I42705
sI16
I13140
sI17
I12643
sI18
I2516680
sI19
I60
sI21
I88225
sI22
I50558
sI23
I37677
sI24
I10540
sI25
I3586738
sI26
I220
sI27
I3
sI28
I8806
sI29
I187
sI30
I22892
sI31
I52534
sI32
I1113027
sI33
I129014
sI34
I2267
sI35
I2667
sI36
I182198
sI37
I3229
sI38
I683704
sI40
I56107
sI41
I4995
sI42
I1435
sI43
I25112
sI44
I4887
sI45
I26834
sI46
I30490
sI47
I28048
sI48
I46063
sI49
I289
sI50
I35
sI51
I22016
sI52
I2669
sI53
I42
sI54
I30194
sI55
I517
sI56
I4
sI57
I10638
sI58
I1294
sI59
I3618
sI61
I24
sI62
I1424
sI63
I438702
sI64
I292
sI65
I78038
sI66
I124453
sI67
I39906
sI68
I4696
ssI32
(dp36
I0
I920
sI1
I7
sI2
I4
sI3
I130
sI4
I1074
sI5
I7848
sI6
I7787
sI7
I95182
sI8
I927
sI9
I117137
sI10
I1142
sI11
I4
sI12
I776
sI13
I1125
sI14
I6248
sI15
I2600
sI16
I372
sI17
I372
sI18
I247235
sI21
I7620
sI22
I4396
sI23
I3578
sI24
I137
sI25
I431029
sI26
I11
sI28
I1364
sI29
I2
sI30
I2492
sI31
I1163
sI32
I4729
sI33
I4643
sI34
I191
sI35
I159
sI36
I15560
sI37
I440
sI38
I62869
sI40
I5981
sI41
I737
sI42
I213
sI43
I2566
sI44
I496
sI45
I2662
sI46
I4763
sI47
I3721
sI48
I3597
sI49
I46
sI50
I2
sI51
I1074
sI52
I955
sI54
I3818
sI55
I19
sI57
I391
sI58
I2
sI59
I233
sI62
I105
sI63
I42225
sI64
I17
sI65
I9135
sI66
I9050
sI67
I3882
sI68
I598
ssI33
(dp37
I0
I1335
sI1
I37
sI2
I155
sI3
I278
sI4
I5673
sI5
I9690
sI6
I55706
sI7
I415347
sI8
I2218
sI9
I77152
sI10
I1120
sI11
I3
sI12
I85
sI13
I2629
sI14
I32978
sI15
I7638
sI16
I1104
sI17
I4285
sI18
I139442
sI19
I8
sI21
I8367
sI22
I9190
sI23
I2623
sI24
I558
sI25
I676689
sI26
I10
sI28
I654
sI29
I6
sI30
I2836
sI31
I1016
sI32
I3974
sI33
I1188
sI34
I234
sI35
I158
sI36
I13307
sI37
I1761
sI38
I92642
sI40
I5781
sI41
I871
sI42
I267
sI43
I5701
sI44
I931
sI45
I6537
sI46
I7501
sI47
I7260
sI48
I3326
sI49
I63
sI50
I4
sI51
I98
sI52
I126
sI53
I1
sI54
I1407
sI55
I149
sI56
I5
sI57
I13
sI58
I2
sI59
I1296
sI61
I8
sI62
I899
sI63
I121606
sI64
I401
sI65
I14106
sI66
I20702
sI67
I6222
sI68
I757
ssI34
(dp38
I0
I422
sI1
I166
sI2
I582
sI3
I298
sI4
I1256
sI5
I13909
sI6
I4242
sI7
I14953
sI8
I294
sI9
I43425
sI10
I43750
sI11
I7
sI12
I11
sI13
I7305
sI14
I1551
sI15
I860
sI16
I5038
sI17
I339
sI18
I230
sI19
I16
sI20
I5671
sI21
I221
sI22
I190
sI23
I69
sI24
I15880
sI25
I8325
sI26
I420
sI27
I1
sI28
I1253
sI29
I100
sI30
I6849
sI31
I127169
sI32
I6
sI33
I11
sI34
I4682
sI35
I5112
sI36
I82447
sI37
I1240
sI38
I145221
sI40
I37803
sI41
I1223
sI42
I367
sI43
I5108
sI44
I1945
sI45
I4610
sI46
I6184
sI47
I8106
sI48
I25267
sI49
I86
sI50
I3
sI51
I111
sI52
I12
sI53
I6
sI54
I70
sI55
I94
sI57
I13
sI58
I158
sI59
I8371
sI60
I4
sI61
I14
sI62
I1
sI63
I239
sI64
I7
sI65
I4
sI66
I180
sI67
I14097
sI68
I9532
ssI35
(dp39
I0
I896
sI1
I50
sI2
I177
sI3
I114
sI4
I1692
sI5
I6654
sI6
I4900
sI7
I3948
sI8
I260
sI9
I28462
sI10
I19743
sI11
I87
sI12
I2
sI13
I14281
sI14
I875
sI15
I541
sI16
I13043
sI17
I919
sI18
I588
sI19
I6
sI20
I40820
sI21
I6928
sI22
I23056
sI23
I78
sI24
I21040
sI25
I19472
sI26
I128
sI27
I3
sI28
I536
sI29
I15
sI30
I3185
sI31
I115756
sI32
I27
sI33
I14
sI34
I1484
sI35
I3272
sI36
I45877
sI37
I559
sI38
I63195
sI39
I1
sI40
I14209
sI41
I471
sI42
I130
sI43
I2258
sI44
I598
sI45
I1655
sI46
I2220
sI47
I2652
sI48
I14946
sI49
I21
sI50
I206
sI51
I276
sI52
I73
sI53
I13
sI55
I197
sI57
I22
sI58
I122
sI59
I2325
sI62
I61
sI63
I112
sI64
I9
sI65
I6
sI66
I74
sI67
I5913
sI68
I3691
ssI36
(dp40
I0
I73995
sI1
I230
sI2
I389
sI3
I3639
sI4
I100936
sI5
I124204
sI6
I278809
sI7
I306873
sI8
I85367
sI9
I261931
sI10
I11009
sI11
I16
sI13
I2351377
sI14
I20227
sI15
I143729
sI16
I441103
sI17
I425
sI18
I836
sI19
I4
sI20
I21
sI21
I129696
sI22
I6763
sI23
I141242
sI24
I658286
sI25
I87416
sI26
I3886
sI28
I6768
sI29
I2
sI30
I9017
sI31
I2823943
sI32
I126
sI33
I3703
sI34
I1120
sI35
I1580
sI36
I717898
sI37
I24789
sI38
I1140984
sI39
I3
sI40
I26286
sI41
I3697
sI42
I263
sI43
I10927
sI44
I1921
sI45
I12186
sI46
I15503
sI47
I8234
sI48
I259601
sI49
I381
sI50
I13739
sI51
I1348684
sI52
I48884
sI53
I766
sI54
I707
sI55
I1976
sI56
I17919
sI57
I74
sI58
I184633
sI59
I1933
sI61
I1
sI63
I1691
sI64
I289
sI65
I2
sI66
I4444
sI67
I70429
sI68
I2313
ssI37
(dp41
I0
I451
sI3
I8
sI4
I298
sI5
I333
sI6
I3435
sI7
I1667
sI8
I123
sI9
I1759
sI10
I143
sI13
I69916
sI14
I1048
sI15
I11925
sI16
I16637
sI17
I30
sI18
I2
sI21
I5415
sI22
I120
sI23
I2311
sI24
I8685
sI25
I22519
sI26
I23
sI28
I8
sI30
I185
sI31
I850
sI34
I10
sI35
I6
sI36
I8365
sI37
I4
sI38
I2586
sI40
I282
sI43
I1
sI44
I5
sI45
I28
sI46
I27
sI47
I81
sI48
I136
sI49
I4
sI50
I1561
sI51
I4050
sI52
I36
sI53
I2
sI55
I2
sI56
I2
sI57
I2
sI58
I23
sI59
I10
sI63
I5
sI64
I1
sI66
I79
sI67
I109
sI68
I3
ssI38
(dp42
I0
I140084
sI1
I857
sI2
I1551
sI3
I16633
sI4
I396215
sI5
I609488
sI6
I911909
sI7
I309088
sI8
I202023
sI9
I540313
sI10
I26874
sI11
I1171
sI12
I24
sI13
I6494970
sI14
I53484
sI15
I313760
sI16
I1616119
sI17
I4559
sI18
I3170
sI19
I34
sI20
I217
sI21
I282408
sI22
I16244
sI23
I392376
sI24
I2750458
sI25
I347121
sI26
I6214
sI27
I10
sI28
I53142
sI29
I47
sI30
I58884
sI31
I133910
sI32
I652
sI33
I1725
sI34
I4884
sI35
I3795
sI36
I1816435
sI37
I30856
sI38
I2895193
sI39
I139
sI40
I64407
sI41
I12329
sI42
I1786
sI43
I24625
sI44
I57880
sI45
I28776
sI46
I126084
sI47
I16035
sI48
I460788
sI49
I4628
sI50
I82902
sI51
I1868338
sI52
I182451
sI53
I1837
sI54
I369
sI55
I45709
sI56
I18964
sI57
I760
sI58
I61827
sI59
I2274
sI60
I1
sI61
I34
sI62
I50
sI63
I3865
sI64
I2133
sI65
I21
sI66
I15780
sI67
I63597
sI68
I876
ssI39
(dp43
I0
I1
sI36
I3
sI5
I193
sI38
I3
sI7
I17
sI9
I52
sI4
I1
sI30
I1
ssI40
(dp44
I0
I3795
sI1
I26
sI2
I16
sI3
I49
sI4
I6713
sI5
I4708
sI6
I32362
sI7
I29179
sI8
I2797
sI9
I12196
sI10
I3397
sI11
I82
sI13
I183924
sI14
I19093
sI15
I5987
sI16
I12932
sI17
I525
sI18
I1776
sI20
I175541
sI21
I5057
sI22
I3838
sI23
I5695
sI24
I56756
sI25
I472506
sI26
I1455
sI27
I2
sI28
I251
sI29
I2
sI30
I2153
sI31
I11855
sI32
I534
sI33
I1228
sI34
I160
sI35
I159
sI36
I123371
sI37
I914
sI38
I133494
sI40
I4507
sI41
I95
sI42
I27
sI43
I97
sI44
I250
sI45
I238
sI46
I192
sI47
I168
sI48
I3782
sI49
I2
sI50
I32358
sI51
I104871
sI52
I13669
sI53
I24
sI54
I1293
sI55
I329
sI56
I1185
sI57
I17422
sI58
I1565
sI59
I53
sI63
I69
sI64
I61
sI65
I1
sI66
I483
sI67
I1085
sI68
I89
ssI41
(dp45
I0
I3090
sI1
I17
sI2
I24
sI3
I671
sI4
I7615
sI5
I20178
sI6
I104168
sI7
I3122
sI8
I2825
sI9
I4677
sI10
I114
sI11
I4
sI12
I5
sI13
I42820
sI14
I490
sI15
I1979
sI16
I9433
sI17
I54
sI18
I54
sI19
I1
sI21
I5127
sI22
I156
sI23
I2271
sI24
I25491
sI25
I1016
sI26
I45
sI28
I1131
sI30
I2109
sI31
I1179
sI32
I7
sI33
I64
sI34
I35
sI35
I69
sI36
I17165
sI37
I790
sI38
I69854
sI40
I412
sI41
I3120
sI42
I303
sI43
I1684
sI44
I2940
sI45
I1133
sI46
I3548
sI47
I2108
sI48
I17671
sI49
I76
sI50
I120
sI51
I14837
sI52
I108
sI53
I480
sI54
I33
sI55
I18435
sI56
I2358
sI57
I105
sI58
I1235
sI59
I90
sI63
I185
sI64
I27
sI66
I217
sI67
I1953
sI68
I24
ssI42
(dp46
I0
I1589
sI1
I1
sI3
I18
sI4
I4047
sI5
I4180
sI6
I2433
sI7
I949
sI8
I8449
sI9
I2541
sI10
I8
sI13
I7245
sI14
I315
sI15
I431
sI16
I5085
sI17
I7
sI21
I241
sI22
I27
sI23
I1084
sI24
I6567
sI25
I280
sI26
I8
sI28
I229
sI30
I1597
sI31
I64
sI34
I6
sI35
I4
sI36
I1216
sI37
I5
sI38
I13145
sI40
I681
sI41
I45
sI42
I31
sI43
I189
sI44
I638
sI45
I179
sI46
I59
sI47
I412
sI48
I910
sI49
I12
sI50
I8
sI51
I4388
sI52
I19
sI53
I2
sI55
I3688
sI56
I33
sI57
I3
sI58
I13
sI59
I4
sI63
I53
sI64
I12
sI66
I19
sI67
I156
sI68
I4
ssI43
(dp47
I0
I24834
sI1
I227
sI2
I27
sI3
I324
sI4
I24502
sI5
I52544
sI6
I16098
sI7
I4119
sI8
I37981
sI9
I41696
sI10
I370
sI13
I54034
sI14
I572
sI15
I2299
sI16
I38850
sI17
I50
sI18
I56
sI21
I808
sI22
I269
sI23
I4467
sI24
I42518
sI25
I1911
sI26
I143
sI27
I1
sI28
I1170
sI30
I30565
sI31
I2964
sI32
I7
sI33
I25
sI34
I334
sI35
I62
sI36
I43189
sI37
I106
sI38
I275986
sI40
I990
sI41
I518
sI42
I701
sI43
I19062
sI44
I1132646
sI45
I9621
sI46
I3366
sI47
I17357
sI48
I12734
sI49
I1048
sI50
I78
sI51
I21841
sI52
I60
sI53
I49
sI54
I14
sI55
I167927
sI56
I398
sI57
I47
sI58
I484
sI59
I58
sI62
I1
sI63
I92
sI64
I17
sI66
I476
sI67
I419
sI68
I35
ssI44
(dp48
I0
I45661
sI1
I111
sI2
I108
sI3
I265
sI4
I134897
sI5
I131693
sI6
I200880
sI7
I5866
sI8
I98241
sI9
I69030
sI10
I403
sI11
I8
sI13
I29099
sI14
I600
sI15
I1982
sI16
I18446
sI17
I185
sI18
I49
sI19
I1
sI21
I1149
sI22
I326
sI23
I5825
sI24
I27129
sI25
I2815
sI26
I322
sI28
I206
sI30
I35119
sI31
I12093
sI32
I14
sI33
I57
sI34
I361
sI35
I35
sI36
I32397
sI37
I9
sI38
I275864
sI39
I2
sI40
I909
sI41
I319
sI42
I251
sI43
I5772
sI44
I35327
sI45
I32090
sI46
I11206
sI47
I2343
sI48
I21105
sI49
I158
sI50
I486
sI51
I39184
sI52
I81
sI53
I209
sI54
I9
sI55
I201900
sI56
I2468
sI57
I107
sI58
I308
sI59
I904
sI63
I124
sI64
I36
sI66
I210
sI67
I1308
sI68
I47
ssI45
(dp49
I0
I45048
sI1
I43
sI2
I28
sI3
I3291
sI4
I58196
sI5
I60310
sI6
I205216
sI7
I5655
sI8
I80491
sI9
I66197
sI10
I156
sI11
I2
sI13
I205003
sI14
I177
sI15
I14608
sI16
I152494
sI17
I59
sI18
I19
sI21
I20147
sI22
I304
sI23
I28401
sI24
I182940
sI25
I2108
sI26
I210
sI28
I3005
sI30
I24382
sI31
I1192
sI32
I6
sI33
I26
sI34
I80
sI35
I96
sI36
I96468
sI37
I746
sI38
I311535
sI39
I3
sI40
I13391
sI41
I4353
sI42
I96
sI43
I2424
sI44
I1515
sI45
I10141
sI46
I55773
sI47
I2658
sI48
I31256
sI49
I383
sI50
I1245
sI51
I73886
sI52
I407
sI53
I7
sI55
I6439
sI56
I572
sI57
I32
sI58
I379
sI59
I172
sI60
I1
sI61
I1
sI63
I34
sI64
I24
sI66
I901
sI67
I2972
sI68
I34
ssI46
(dp50
I0
I20557
sI1
I64
sI2
I29
sI3
I1550
sI4
I102281
sI5
I34305
sI6
I71213
sI7
I4268
sI8
I82443
sI9
I61346
sI10
I193
sI11
I15
sI12
I1
sI13
I161420
sI14
I571
sI15
I3166
sI16
I18580
sI17
I40
sI18
I17
sI21
I11472
sI22
I226
sI23
I12789
sI24
I136262
sI25
I1752
sI26
I262
sI28
I3417
sI30
I9578
sI31
I1046
sI32
I2
sI33
I31
sI34
I108
sI35
I83
sI36
I74174
sI37
I2543
sI38
I556173
sI40
I3694
sI41
I5839
sI42
I109
sI43
I1756
sI44
I16272
sI45
I21460
sI46
I37421
sI47
I3248
sI48
I159690
sI49
I169
sI50
I2719
sI51
I105512
sI52
I484
sI53
I56
sI54
I3
sI55
I2598
sI56
I859751
sI57
I40
sI58
I1627
sI59
I221
sI63
I84
sI64
I28
sI65
I1
sI66
I588
sI67
I1885
sI68
I15
ssI47
(dp51
I0
I5910
sI1
I4
sI2
I1
sI3
I580
sI4
I27133
sI5
I15595
sI6
I66742
sI7
I2024
sI8
I10641
sI9
I38161
sI10
I53
sI11
I10
sI13
I179090
sI14
I189
sI15
I11537
sI16
I49031
sI17
I46
sI18
I11
sI21
I13074
sI22
I152
sI23
I19515
sI24
I196473
sI25
I1770
sI26
I239
sI28
I638
sI30
I6120
sI31
I368
sI33
I3
sI34
I32
sI35
I11
sI36
I75362
sI37
I2406
sI38
I294525
sI40
I4458
sI41
I2018
sI42
I90
sI43
I731
sI44
I923
sI45
I24408
sI46
I16310
sI47
I61887
sI48
I5667
sI49
I603
sI50
I831
sI51
I117114
sI52
I1185
sI53
I16
sI55
I289
sI56
I5743
sI57
I2
sI58
I597
sI59
I72
sI63
I90
sI64
I42
sI66
I566
sI67
I11618
sI68
I3
ssI48
(dp52
I0
I210988
sI1
I7
sI2
I14
sI3
I7076
sI4
I155734
sI5
I61243
sI6
I601128
sI7
I31646
sI8
I463087
sI9
I135355
sI10
I392
sI11
I3
sI12
I1
sI13
I43968
sI14
I10653
sI15
I1717
sI16
I6503
sI17
I25
sI18
I33
sI21
I2988
sI22
I395
sI23
I752
sI24
I151705
sI25
I2162
sI26
I298
sI28
I327
sI30
I8881
sI31
I1960
sI32
I1
sI33
I12
sI34
I94
sI35
I58
sI36
I205660
sI37
I55
sI38
I246191
sI40
I678
sI41
I1112
sI42
I650
sI43
I5695
sI44
I1752
sI45
I7191
sI46
I7112
sI47
I1285
sI48
I6922580
sI49
I1702
sI50
I5030
sI51
I45778
sI52
I42
sI53
I4210706
sI54
I1
sI55
I4074
sI56
I9104
sI57
I31
sI58
I1357
sI59
I1019
sI63
I41
sI64
I2
sI65
I2
sI66
I2977
sI67
I4969
sI68
I17
ssI49
(dp53
I0
I9
sI2
I1
sI3
I38
sI4
I27
sI5
I254
sI6
I39
sI7
I7
sI8
I72
sI9
I22
sI10
I4
sI13
I132
sI14
I3
sI15
I5
sI16
I19
sI21
I7
sI23
I2
sI24
I166
sI25
I9
sI26
I1
sI28
I41
sI30
I275
sI31
I24
sI36
I901
sI38
I6734
sI40
I28
sI41
I56
sI42
I31
sI43
I431
sI44
I115
sI45
I1270
sI46
I1135
sI47
I11081
sI48
I1839
sI50
I29
sI51
I157
sI53
I12
sI55
I56
sI56
I9
sI57
I2
sI58
I18
sI59
I3
sI66
I3
sI67
I754
ssI50
(dp54
I0
I829
sI2
I6
sI3
I2
sI4
I1225
sI5
I1000
sI6
I4750
sI7
I3156
sI8
I339
sI9
I3989
sI10
I20
sI13
I33283
sI14
I403
sI15
I3132
sI16
I5024
sI18
I11
sI21
I2719
sI22
I67
sI23
I3477
sI24
I10997
sI25
I1522
sI26
I77
sI28
I34
sI30
I185
sI31
I46357
sI32
I1
sI33
I2
sI34
I5
sI35
I16
sI36
I9000
sI37
I824
sI38
I11309
sI40
I574
sI41
I2
sI43
I14
sI44
I6
sI45
I11
sI46
I28
sI47
I7
sI48
I2182
sI50
I6
sI51
I2833
sI52
I5
sI53
I1
sI55
I36
sI56
I4
sI58
I390
sI59
I12
sI63
I5
sI64
I1
sI66
I21
sI67
I349
sI68
I2
ssI51
(dp55
I0
I31974
sI1
I97
sI2
I81
sI3
I2132
sI4
I62705
sI5
I172854
sI6
I218855
sI7
I69128
sI8
I46179
sI9
I120111
sI10
I1597
sI11
I18
sI12
I5
sI13
I1292440
sI14
I9852
sI15
I76785
sI16
I405406
sI17
I415
sI18
I936
sI19
I12
sI21
I66237
sI22
I1900
sI23
I76631
sI24
I641035
sI25
I43662
sI26
I868
sI28
I14769
sI29
I1
sI30
I10804
sI31
I14360
sI32
I90
sI33
I82
sI34
I663
sI35
I499
sI36
I283258
sI37
I3018
sI38
I298223
sI39
I4
sI40
I6790
sI41
I2404
sI42
I305
sI43
I2233
sI44
I7523
sI45
I4517
sI46
I16026
sI47
I3366
sI48
I116252
sI49
I881
sI50
I3579
sI51
I95220
sI52
I1660
sI53
I342
sI54
I61
sI55
I7481
sI56
I544
sI57
I32
sI58
I6016
sI59
I368
sI63
I202
sI64
I279
sI65
I1
sI66
I3294
sI67
I10870
sI68
I130
ssI52
(dp56
I0
I160
sI2
I1
sI3
I67
sI4
I928
sI5
I251
sI6
I1654
sI7
I1912
sI8
I121
sI9
I2659
sI10
I79
sI13
I14888
sI14
I1311
sI15
I224
sI16
I100
sI17
I13
sI18
I84
sI20
I65446
sI21
I109
sI22
I109
sI23
I30
sI24
I1152
sI25
I111512
sI26
I507
sI28
I2
sI30
I502
sI31
I165
sI33
I65
sI35
I7
sI36
I25977
sI37
I524
sI38
I31887
sI40
I1691
sI41
I35
sI42
I1
sI43
I8
sI44
I10
sI45
I29
sI46
I41
sI47
I98
sI48
I106
sI49
I13
sI50
I9
sI51
I108
sI52
I1
sI53
I1
sI58
I7
sI59
I7
sI63
I1
sI66
I1
sI67
I395
ssI53
(dp57
I0
I60213
sI1
I30
sI2
I40
sI3
I1609
sI4
I73605
sI5
I134196
sI6
I232117
sI7
I143714
sI8
I78198
sI9
I533888
sI10
I8949
sI11
I9
sI13
I730756
sI14
I32907
sI15
I30891
sI16
I116402
sI17
I92
sI18
I266
sI21
I108618
sI22
I4678
sI23
I24869
sI24
I419680
sI25
I56154
sI26
I571
sI28
I4128
sI29
I17
sI30
I1870
sI31
I71597
sI32
I3
sI33
I224
sI34
I719
sI35
I595
sI36
I157968
sI37
I1805
sI38
I169309
sI39
I1
sI40
I4328
sI41
I3900
sI42
I279
sI43
I72806
sI44
I2229
sI45
I25278
sI46
I15159
sI47
I4687
sI48
I241625
sI49
I260
sI50
I3687
sI51
I228362
sI52
I219
sI53
I63
sI54
I18
sI55
I378
sI56
I912
sI58
I62863
sI59
I244
sI61
I8
sI63
I341
sI64
I5
sI65
I4
sI66
I56972
sI67
I297484
sI68
I296
ssI54
(dp58
I0
I50
sI4
I95
sI5
I16
sI6
I933
sI7
I3659
sI8
I46
sI9
I63
sI10
I1
sI13
I1553
sI14
I218
sI15
I49
sI16
I631
sI17
I111
sI18
I2
sI20
I3078
sI21
I65
sI22
I47
sI23
I8
sI24
I10
sI25
I33295
sI26
I1
sI30
I1
sI31
I38
sI36
I32
sI38
I124
sI40
I2
sI45
I2
sI46
I1
sI48
I3
sI51
I61
sI54
I35
sI55
I6
sI57
I1
sI63
I2
sI68
I1
ssI55
(dp59
I0
I6532
sI1
I13
sI2
I33
sI3
I1
sI4
I6412
sI5
I131137
sI6
I8957
sI7
I28396
sI8
I16349
sI9
I9980
sI10
I63
sI11
I34
sI13
I87290
sI14
I358
sI15
I3780
sI16
I99598
sI17
I107
sI18
I21
sI19
I5
sI21
I1242
sI22
I150
sI23
I5755
sI24
I59003
sI25
I3602
sI26
I19
sI28
I33
sI30
I252
sI31
I831
sI33
I35
sI34
I152
sI35
I53
sI36
I5045
sI37
I39
sI38
I6199
sI39
I31
sI40
I213
sI41
I11
sI42
I1
sI43
I36
sI44
I113
sI45
I9
sI46
I41
sI47
I32
sI48
I2512
sI49
I34
sI50
I3
sI51
I13005
sI52
I31
sI54
I4
sI55
I179
sI56
I1
sI58
I13
sI59
I24
sI63
I43
sI64
I89
sI65
I2
sI66
I283
sI67
I404
sI68
I26
ssI56
(dp60
I0
I7670
sI2
I1
sI3
I191
sI4
I27430
sI5
I9040
sI6
I87651
sI7
I2950
sI8
I8436
sI9
I46564
sI10
I57
sI13
I76707
sI14
I66
sI15
I1127
sI16
I14585
sI17
I4
sI18
I5
sI21
I7080
sI22
I107
sI23
I7055
sI24
I128849
sI25
I902
sI26
I113
sI28
I379
sI30
I1689
sI31
I392
sI33
I3
sI34
I37
sI35
I69
sI36
I21207
sI37
I82
sI38
I66842
sI39
I1
sI40
I760
sI41
I2116
sI42
I99
sI43
I726
sI44
I2020
sI45
I1948
sI46
I353305
sI47
I126
sI48
I32439
sI49
I23
sI50
I422
sI51
I7921
sI52
I8
sI53
I13
sI55
I519
sI56
I814
sI57
I2
sI58
I229
sI59
I21
sI63
I11
sI66
I197
sI67
I1057
sI68
I2
ssI57
(dp61
I0
I342
sI1
I18
sI2
I56
sI3
I2
sI4
I566
sI5
I293
sI6
I3185
sI7
I1950
sI8
I359
sI9
I3707
sI10
I160
sI11
I11
sI13
I49877
sI14
I610
sI15
I1141
sI16
I11377
sI17
I228
sI18
I12
sI19
I8
sI21
I2371
sI22
I228
sI23
I5220
sI24
I3611
sI25
I2897
sI26
I16
sI28
I3091
sI30
I36
sI31
I694
sI32
I22
sI33
I6
sI34
I24
sI35
I30
sI36
I552
sI37
I1
sI38
I605
sI40
I34
sI41
I3
sI43
I2
sI44
I25
sI46
I3
sI47
I1
sI48
I6647
sI49
I3
sI51
I539
sI52
I1
sI53
I5
sI54
I1524
sI55
I14
sI56
I4
sI57
I6
sI58
I64
sI59
I6
sI63
I103
sI64
I21
sI66
I33
sI67
I130
sI68
I2
ssI58
(dp62
I0
I730
sI1
I21
sI2
I5
sI3
I8
sI4
I2194
sI5
I3093
sI6
I22984
sI7
I6398
sI8
I2203
sI9
I71585
sI10
I284
sI11
I1
sI13
I80987
sI14
I834
sI15
I735
sI16
I12626
sI17
I3
sI18
I7
sI19
I2
sI20
I1
sI21
I8842
sI22
I270
sI23
I866
sI24
I149912
sI25
I8679
sI26
I82
sI28
I247
sI30
I303
sI31
I2281
sI33
I50
sI34
I1508
sI35
I612
sI36
I7525
sI37
I247
sI38
I7942
sI40
I849
sI41
I81
sI42
I5
sI43
I199
sI44
I447
sI45
I199
sI46
I473
sI47
I188
sI48
I8956
sI49
I11
sI50
I8
sI51
I1633
sI52
I46
sI53
I9
sI54
I1
sI55
I98
sI56
I6
sI58
I605
sI59
I98
sI63
I17
sI64
I3
sI66
I73
sI67
I1921
sI68
I103
ssI59
(dp63
I0
I211
sI1
I35
sI2
I80
sI3
I5
sI4
I1485
sI5
I2658
sI6
I4373
sI7
I1034
sI8
I949
sI9
I4269
sI10
I501
sI11
I29
sI12
I2
sI13
I199033
sI14
I717
sI15
I16732
sI16
I129905
sI17
I388
sI18
I111
sI19
I58
sI21
I69622
sI22
I21106
sI23
I900
sI24
I53616
sI25
I9204
sI26
I431
sI27
I26
sI28
I17
sI29
I1
sI30
I237
sI31
I4245
sI32
I3
sI33
I133
sI34
I306
sI35
I367
sI36
I1335
sI37
I13
sI38
I7854
sI39
I25
sI40
I694
sI41
I42
sI42
I2
sI43
I136
sI44
I210
sI45
I67
sI46
I194
sI47
I114
sI48
I5784
sI49
I2
sI50
I27
sI51
I19064
sI52
I14
sI53
I145
sI54
I30
sI55
I494
sI56
I14
sI57
I2
sI58
I486
sI59
I865
sI61
I1
sI63
I280
sI64
I136
sI66
I5722
sI67
I2319
sI68
I303
ssI60
(dp64
I2
I1
sI4
I2
sI6
I8
sI7
I1
sI9
I83
sI10
I14
sI17
I4
sI25
I2
sI30
I2
sI31
I12
sI34
I2
sI35
I5
sI36
I10
sI37
I1
sI38
I28
sI40
I5
sI43
I1
sI45
I1
sI47
I1
sI48
I2
sI51
I3
sI54
I1
sI59
I2
sI67
I3
sI68
I2
ssI61
(dp65
I0
I3
sI1
I28
sI2
I19
sI4
I7
sI5
I1
sI6
I177
sI7
I40
sI8
I2
sI9
I21
sI10
I5
sI13
I10
sI14
I6
sI15
I2
sI17
I32
sI21
I1
sI24
I2
sI25
I23
sI31
I165
sI33
I23
sI34
I4
sI35
I2
sI36
I5
sI38
I48
sI44
I2
sI51
I2
sI52
I2
sI59
I9
sI63
I1
sI66
I2
sI67
I16
sI68
I1
ssI62
(dp66
I0
I21
sI1
I27
sI4
I14
sI5
I3
sI6
I123
sI7
I1
sI8
I3
sI9
I15
sI10
I10
sI11
I4
sI13
I15
sI14
I7
sI16
I3
sI17
I17
sI21
I2
sI22
I30
sI23
I42
sI25
I8080
sI31
I47
sI34
I21
sI36
I11
sI38
I263
sI43
I3
sI44
I4
sI45
I1
sI46
I1
sI51
I176
sI54
I3
sI55
I1
sI59
I5
sI63
I1
sI66
I2
sI67
I2
ssI63
(dp67
I0
I583
sI1
I20
sI2
I54
sI3
I3
sI4
I1004
sI5
I1284
sI6
I13616
sI7
I22673
sI8
I503
sI9
I7537
sI10
I3716
sI11
I1
sI13
I526294
sI14
I12180
sI15
I23873
sI16
I279475
sI17
I1917
sI18
I698
sI19
I2
sI21
I25578
sI22
I64416
sI23
I8282
sI24
I12946
sI25
I305352
sI26
I65
sI28
I47
sI29
I6
sI30
I585
sI31
I3796
sI32
I2
sI33
I5
sI34
I132
sI35
I131
sI36
I747
sI37
I44
sI38
I3186
sI40
I288
sI41
I11
sI42
I8
sI43
I287
sI44
I29
sI45
I23
sI46
I24
sI47
I20
sI48
I471
sI50
I5
sI51
I362
sI52
I2
sI53
I7
sI54
I6
sI55
I62
sI56
I6
sI57
I3
sI58
I17
sI59
I88
sI63
I14
sI64
I12
sI66
I193
sI67
I212
sI68
I47
ssI64
(dp68
I0
I9
sI4
I26
sI5
I7
sI6
I333
sI7
I308
sI8
I14
sI9
I14
sI13
I626
sI14
I16
sI15
I6
sI16
I40
sI17
I45
sI20
I1559
sI21
I23
sI23
I10
sI24
I16
sI25
I3372
sI26
I1
sI31
I28
sI32
I2
sI33
I1
sI34
I3
sI36
I15
sI38
I86
sI44
I3
sI47
I2
sI51
I40
sI55
I3
sI63
I6
ssI65
(dp69
I0
I27
sI2
I2
sI3
I3
sI4
I36
sI5
I193
sI6
I573
sI7
I679
sI8
I19
sI9
I4073
sI10
I514
sI13
I31629
sI14
I10
sI15
I17
sI16
I67
sI17
I13
sI18
I2
sI20
I55794
sI21
I65
sI22
I5
sI23
I7
sI24
I23
sI25
I83315
sI26
I2
sI28
I9
sI30
I288
sI31
I10604
sI32
I1
sI34
I273
sI35
I110
sI36
I11492
sI37
I5
sI38
I4285
sI40
I517
sI41
I19
sI42
I2
sI43
I340
sI44
I5
sI45
I471
sI46
I150
sI47
I346
sI48
I134
sI50
I4
sI51
I101
sI56
I33
sI58
I2
sI59
I41
sI63
I3
sI66
I1
sI67
I143
sI68
I22
ssI66
(dp70
I0
I1045
sI1
I19
sI2
I14
sI3
I79
sI4
I1797
sI5
I6773
sI6
I10137
sI7
I9879
sI8
I892
sI9
I259717
sI10
I1842
sI13
I254126
sI14
I3675
sI15
I1706
sI16
I37828
sI17
I101
sI18
I23
sI19
I4
sI21
I8861
sI22
I1527
sI23
I1261
sI24
I97320
sI25
I22177
sI26
I83
sI28
I1631
sI29
I1
sI30
I1728
sI31
I11254
sI32
I2
sI33
I22
sI34
I1225
sI35
I1054
sI36
I21964
sI37
I69
sI38
I30610
sI40
I2525
sI41
I312
sI42
I69
sI43
I1422
sI44
I224
sI45
I2763
sI46
I19535
sI47
I2495
sI48
I16462
sI49
I18
sI50
I9
sI51
I107
sI52
I59
sI53
I1
sI54
I7
sI55
I1
sI56
I29
sI58
I65
sI59
I738
sI62
I5
sI63
I20
sI64
I29
sI66
I164
sI67
I5245
sI68
I558
ssS'B'
p71
(dp72
I0
I3284273
ssI68
(dp73
I0
I73
sI1
I38
sI2
I48
sI3
I243
sI4
I235
sI5
I8178
sI6
I699
sI7
I1532
sI8
I38
sI9
I652
sI10
I5718
sI11
I2
sI13
I484
sI14
I167
sI15
I74
sI16
I33
sI17
I234
sI18
I29
sI21
I1460
sI22
I109
sI23
I13
sI24
I6
sI25
I4107
sI26
I164
sI27
I3
sI28
I844
sI29
I5
sI30
I3368
sI31
I2660
sI32
I2
sI33
I5
sI34
I854
sI35
I840
sI36
I68180
sI37
I5700
sI38
I280534
sI40
I9675
sI41
I549
sI42
I201
sI43
I2273
sI44
I610
sI45
I1519
sI46
I2023
sI47
I1880
sI48
I15072
sI49
I36
sI51
I113
sI52
I1
sI53
I4
sI55
I17
sI57
I3
sI58
I1
sI59
I1398
sI61
I1
sI62
I12
sI63
I24666
sI64
I784
sI65
I16507
sI66
I84658
sI67
I30040
sI68
I1016
ssI19
(dp74
I0
I2
sI1
I5
sI2
I3
sI4
I23
sI5
I5
sI6
I92
sI7
I64
sI8
I11
sI9
I115
sI10
I5
sI14
I2
sI15
I1
sI17
I13
sI18
I1
sI19
I21
sI25
I1
sI26
I1
sI30
I5
sI31
I27
sI33
I1
sI34
I4
sI35
I56
sI36
I15
sI37
I2
sI38
I213
sI40
I3
sI43
I3
sI44
I9
sI45
I1
sI46
I5
sI47
I1
sI59
I8
sI63
I1
sI66
I1
sI67
I18
sI68
I4
ss.